; Function Attrs: mustprogress nounwind uwtable
define internal fastcc void @"_ZZNK7glslang10TQualifier31getSpirvDecorateQualifierStringB5cxx11EvENK3$_1clEi"(ptr %.0.val, i32 noundef %0) unnamed_addr #0 align 2 {
  %2 = alloca %"class.std::__cxx11::basic_string.80", align 8
  call void @_ZNSt7__cxx119to_stringEi(ptr dead_on_unwind nonnull writable sret(%"class.std::__cxx11::basic_string.80") align 8 %2, i32 noundef %0) #14
  %3 = call noundef ptr @_ZNKSt7__cxx1112basic_stringIcSt11char_traitsIcESaIcEE5c_strEv(ptr noundef nonnull align 8 dereferenceable(32) %2) #14
  %4 = call noundef i64 @strlen(ptr noundef nonnull dereferenceable(1) %3) #14
  %5 = getelementptr inbounds nuw i8, ptr %.0.val, i64 16
  %6 = load i64, ptr %5, align 8
  %7 = sub i64 9223372036854775807, %6
  %8 = icmp ult i64 %7, %4
  br i1 %8, label %9, label %_ZNKSt7__cxx1112basic_stringIcSt11char_traitsIcEN7glslang14pool_allocatorIcEEE15_M_check_lengthEmmPKc.exit.i

9:                                                ; preds = %1
  call void @_ZSt20__throw_length_errorPKc(ptr noundef nonnull @.str.23) #16
  unreachable

_ZNKSt7__cxx1112basic_stringIcSt11char_traitsIcEN7glslang14pool_allocatorIcEEE15_M_check_lengthEmmPKc.exit.i: ; preds = %1
  %10 = add i64 %6, %4
  %11 = getelementptr inbounds nuw i8, ptr %.0.val, i64 8
  %12 = load ptr, ptr %11, align 8
  %13 = getelementptr inbounds nuw i8, ptr %.0.val, i64 24
  %14 = icmp eq ptr %12, %13
  br i1 %14, label %15, label %_ZNKSt7__cxx1112basic_stringIcSt11char_traitsIcEN7glslang14pool_allocatorIcEEE8capacityEv.exit.i.i

15:                                               ; preds = %_ZNKSt7__cxx1112basic_stringIcSt11char_traitsIcEN7glslang14pool_allocatorIcEEE15_M_check_lengthEmmPKc.exit.i
  %16 = icmp ult i64 %6, 16
  call void @llvm.assume(i1 %16)
  br label %_ZNKSt7__cxx1112basic_stringIcSt11char_traitsIcEN7glslang14pool_allocatorIcEEE8capacityEv.exit.i.i

_ZNKSt7__cxx1112basic_stringIcSt11char_traitsIcEN7glslang14pool_allocatorIcEEE8capacityEv.exit.i.i: ; preds = %15, %_ZNKSt7__cxx1112basic_stringIcSt11char_traitsIcEN7glslang14pool_allocatorIcEEE15_M_check_lengthEmmPKc.exit.i
  %17 = load i64, ptr %13, align 8
  %18 = select i1 %14, i64 15, i64 %17
  %.not.i.i = icmp ugt i64 %10, %18
  br i1 %.not.i.i, label %25, label %19

19:                                               ; preds = %_ZNKSt7__cxx1112basic_stringIcSt11char_traitsIcEN7glslang14pool_allocatorIcEEE8capacityEv.exit.i.i
  %.not8.i.i = icmp eq i64 %4, 0
  br i1 %.not8.i.i, label %_ZNSt7__cxx1112basic_stringIcSt11char_traitsIcEN7glslang14pool_allocatorIcEEE6appendEPKc.exit, label %20

20:                                               ; preds = %19
  %21 = getelementptr inbounds i8, ptr %12, i64 %6
  %cond.i.i = icmp eq i64 %4, 1
  br i1 %cond.i.i, label %22, label %24

22:                                               ; preds = %20
  %23 = load i8, ptr %3, align 1
  store i8 %23, ptr %21, align 1
  br label %_ZNSt7__cxx1112basic_stringIcSt11char_traitsIcEN7glslang14pool_allocatorIcEEE6appendEPKc.exit

24:                                               ; preds = %20
  call void @llvm.memcpy.p0.p0.i64(ptr align 1 %21, ptr nonnull align 1 %3, i64 %4, i1 false)
  br label %_ZNSt7__cxx1112basic_stringIcSt11char_traitsIcEN7glslang14pool_allocatorIcEEE6appendEPKc.exit

25:                                               ; preds = %_ZNKSt7__cxx1112basic_stringIcSt11char_traitsIcEN7glslang14pool_allocatorIcEEE8capacityEv.exit.i.i
  call void @_ZNSt7__cxx1112basic_stringIcSt11char_traitsIcEN7glslang14pool_allocatorIcEEE9_M_mutateEmmPKcm(ptr noundef nonnull align 8 dereferenceable(40) %.0.val, i64 noundef %6, i64 noundef 0, ptr noundef nonnull %3, i64 noundef %4)
  br label %_ZNSt7__cxx1112basic_stringIcSt11char_traitsIcEN7glslang14pool_allocatorIcEEE6appendEPKc.exit

_ZNSt7__cxx1112basic_stringIcSt11char_traitsIcEN7glslang14pool_allocatorIcEEE6appendEPKc.exit: ; preds = %19, %22, %24, %25
  store i64 %10, ptr %5, align 8
  %26 = load ptr, ptr %11, align 8
  %27 = getelementptr inbounds i8, ptr %26, i64 %10
  store i8 0, ptr %27, align 1
  call void @_ZNSt7__cxx1112basic_stringIcSt11char_traitsIcESaIcEED1Ev(ptr noundef nonnull align 8 dereferenceable(32) %2) #14
  ret void
}